target datalayout = "e-m:e-p270:32:32-p271:32:32-p272:64:64-i64:64-i128:128-f80:128-n8:16:32:64-S128"
target triple = "x86_64-pc-linux-gnu"

%struct._packet_info = type { ptr, ptr, i32, i32, %struct.nstime_t, %struct.nstime_t, %struct.nstime_t, i8, ptr, ptr, ptr, ptr, %struct._address, %struct._address, %struct._address, %struct._address, %struct._address, %struct._address, i32, ptr, i8, [3 x i8], %struct.anon, i32, i32, i32, i32, ptr, i8, ptr, ptr, i16, i16, i32, i32, i16, i32, i32, ptr, ptr, ptr, i8, i8, i16, i16, i16, i32, i16, i16, ptr, ptr, ptr, ptr, ptr, i32, i32 }
%struct.nstime_t = type { i64, i32 }
%struct._address = type { i32, i32, ptr, ptr }
%struct.anon = type { i8, [3 x i8] }

@hf_bcp_bpdu_flags = internal global i32 0, align 4
@.str.477 = private unnamed_addr constant [15 x i8] c"Bridge control\00", align 1
@hf_bcp_bpdu_mac_type = internal global i32 0, align 4
@hf_bcp_bpdu_pad = internal global i32 0, align 4
@ett_bcp_bpdu = internal global i32 0, align 4
@ett_bcp_bpdu_flags = internal global i32 0, align 4
@proto_bcp_bpdu = internal global i32 0, align 4
@eth_withfcs_handle = internal global ptr null, align 8
@eth_withoutfcs_handle = internal global ptr null, align 8
@dissect_bcp_bpdu.bcp_bpdu_flags = internal constant [5 x ptr] [ptr @hf_bcp_bpdu_fcs_present, ptr @hf_bcp_bpdu_zeropad, ptr @hf_bcp_bpdu_bcontrol, ptr @hf_bcp_bpdu_pads, ptr null], align 16
@.str.1400 = private unnamed_addr constant [8 x i8] c"PPP BCP\00", align 1
@.str.1401 = private unnamed_addr constant [20 x i8] c"Unknown MAC type %u\00", align 1

; Function Attrs: null_pointer_is_valid sspstrong uwtable
define internal i32 @dissect_bcp_bpdu(ptr noundef %0, ptr noundef %1, ptr noundef %2, ptr noundef %3) #1 {
  %5 = alloca ptr, align 8
  %6 = alloca ptr, align 8
  %7 = alloca ptr, align 8
  %8 = alloca ptr, align 8
  %9 = alloca ptr, align 8
  %10 = alloca ptr, align 8
  %11 = alloca i32, align 4
  %12 = alloca i8, align 1
  %13 = alloca i8, align 1
  %14 = alloca i32, align 4
  %15 = alloca i32, align 4
  %16 = alloca i32, align 4
  %17 = alloca ptr, align 8
  store ptr %0, ptr %5, align 8
  store ptr %1, ptr %6, align 8
  store ptr %2, ptr %7, align 8
  store ptr %3, ptr %8, align 8
  call void @llvm.lifetime.start.p0(i64 8, ptr %9) #6
  call void @llvm.lifetime.start.p0(i64 8, ptr %10) #6
  call void @llvm.lifetime.start.p0(i64 4, ptr %11) #6
  store i32 0, ptr %11, align 4
  call void @llvm.lifetime.start.p0(i64 1, ptr %12) #6
  call void @llvm.lifetime.start.p0(i64 1, ptr %13) #6
  call void @llvm.lifetime.start.p0(i64 4, ptr %14) #6
  call void @llvm.lifetime.start.p0(i64 4, ptr %15) #6
  call void @llvm.lifetime.start.p0(i64 4, ptr %16) #6
  call void @llvm.lifetime.start.p0(i64 8, ptr %17) #6
  %18 = load ptr, ptr %6, align 8
  %19 = getelementptr inbounds nuw %struct._packet_info, ptr %18, i32 0, i32 1
  %20 = load ptr, ptr %19, align 8
  call void @col_set_str(ptr noundef %20, i32 noundef 35, ptr noundef @.str.1400)
  %21 = load ptr, ptr %6, align 8
  %22 = getelementptr inbounds nuw %struct._packet_info, ptr %21, i32 0, i32 1
  %23 = load ptr, ptr %22, align 8
  call void @col_clear(ptr noundef %23, i32 noundef 25)
  %24 = load ptr, ptr %7, align 8
  %25 = load i32, ptr @proto_bcp_bpdu, align 4
  %26 = load ptr, ptr %5, align 8
  %27 = call ptr @proto_tree_add_item(ptr noundef %24, i32 noundef %25, ptr noundef %26, i32 noundef 0, i32 noundef -1, i32 noundef 0)
  store ptr %27, ptr %9, align 8
  %28 = load ptr, ptr %9, align 8
  %29 = load i32, ptr @ett_bcp_bpdu, align 4
  %30 = call ptr @proto_item_add_subtree(ptr noundef %28, i32 noundef %29)
  store ptr %30, ptr %10, align 8
  %31 = load ptr, ptr %5, align 8
  %32 = load i32, ptr %11, align 4
  %33 = call zeroext i8 @tvb_get_uint8(ptr noundef %31, i32 noundef %32)
  store i8 %33, ptr %12, align 1
  %34 = load i8, ptr %12, align 1
  %35 = zext i8 %34 to i32
  %36 = and i32 %35, 16
  %37 = icmp ne i32 %36, 0
  br i1 %37, label %38, label %42

38:                                               ; preds = %4
  %39 = load ptr, ptr %6, align 8
  %40 = getelementptr inbounds nuw %struct._packet_info, ptr %39, i32 0, i32 1
  %41 = load ptr, ptr %40, align 8
  call void @col_set_str(ptr noundef %41, i32 noundef 25, ptr noundef @.str.477)
  br label %42

42:                                               ; preds = %38, %4
  %43 = load ptr, ptr %10, align 8
  %44 = load ptr, ptr %5, align 8
  %45 = load i32, ptr %11, align 4
  %46 = load i32, ptr @hf_bcp_bpdu_flags, align 4
  %47 = load i32, ptr @ett_bcp_bpdu_flags, align 4
  %48 = call ptr @proto_tree_add_bitmask(ptr noundef %43, ptr noundef %44, i32 noundef %45, i32 noundef %46, i32 noundef %47, ptr noundef @dissect_bcp_bpdu.bcp_bpdu_flags, i32 noundef 0)
  %49 = load i32, ptr %11, align 4
  %50 = add i32 %49, 1
  store i32 %50, ptr %11, align 4
  %51 = load ptr, ptr %5, align 8
  %52 = load i32, ptr %11, align 4
  %53 = call zeroext i8 @tvb_get_uint8(ptr noundef %51, i32 noundef %52)
  store i8 %53, ptr %13, align 1
  %54 = load i8, ptr %12, align 1
  %55 = zext i8 %54 to i32
  %56 = and i32 %55, 16
  %57 = icmp ne i32 %56, 0
  br i1 %57, label %65, label %58

58:                                               ; preds = %42
  %59 = load ptr, ptr %6, align 8
  %60 = getelementptr inbounds nuw %struct._packet_info, ptr %59, i32 0, i32 1
  %61 = load ptr, ptr %60, align 8
  %62 = load i8, ptr %13, align 1
  %63 = zext i8 %62 to i32
  %64 = call ptr @val_to_str(i32 noundef %63, ptr noundef @bcp_bpdu_mac_type_vals, ptr noundef @.str.1401)
  call void @col_add_str(ptr noundef %61, i32 noundef 25, ptr noundef %64)
  br label %65

65:                                               ; preds = %58, %42
  %66 = load ptr, ptr %10, align 8
  %67 = load i32, ptr @hf_bcp_bpdu_mac_type, align 4
  %68 = load ptr, ptr %5, align 8
  %69 = load i32, ptr %11, align 4
  %70 = load i8, ptr %13, align 1
  %71 = zext i8 %70 to i32
  %72 = call ptr @proto_tree_add_uint(ptr noundef %66, i32 noundef %67, ptr noundef %68, i32 noundef %69, i32 noundef 1, i32 noundef %71)
  %73 = load i32, ptr %11, align 4
  %74 = add i32 %73, 1
  store i32 %74, ptr %11, align 4
  %75 = load i8, ptr %13, align 1
  %76 = zext i8 %75 to i32
  switch i32 %76, label %85 [
    i32 2, label %77
    i32 3, label %77
    i32 4, label %77
    i32 11, label %77
    i32 12, label %77
  ]

77:                                               ; preds = %65, %65, %65, %65, %65
  %78 = load ptr, ptr %10, align 8
  %79 = load i32, ptr @hf_bcp_bpdu_pad, align 4
  %80 = load ptr, ptr %5, align 8
  %81 = load i32, ptr %11, align 4
  %82 = call ptr @proto_tree_add_item(ptr noundef %78, i32 noundef %79, ptr noundef %80, i32 noundef %81, i32 noundef 1, i32 noundef 0)
  %83 = load i32, ptr %11, align 4
  %84 = add i32 %83, 1
  store i32 %84, ptr %11, align 4
  br label %86

85:                                               ; preds = %65
  br label %86

86:                                               ; preds = %85, %77
  %87 = load ptr, ptr %9, align 8
  %88 = load i32, ptr %11, align 4
  call void @proto_item_set_len(ptr noundef %87, i32 noundef %88)
  %89 = load i8, ptr %12, align 1
  %90 = zext i8 %89 to i32
  %91 = and i32 %90, 16
  %92 = icmp ne i32 %91, 0
  br i1 %92, label %149, label %93

93:                                               ; preds = %86
  %94 = load ptr, ptr %5, align 8
  %95 = load i32, ptr %11, align 4
  %96 = call i32 @tvb_captured_length_remaining(ptr noundef %94, i32 noundef %95)
  store i32 %96, ptr %14, align 4
  %97 = load ptr, ptr %5, align 8
  %98 = load i32, ptr %11, align 4
  %99 = call i32 @tvb_reported_length_remaining(ptr noundef %97, i32 noundef %98)
  store i32 %99, ptr %15, align 4
  %100 = load i8, ptr %12, align 1
  %101 = zext i8 %100 to i32
  %102 = and i32 %101, 15
  store i32 %102, ptr %16, align 4
  %103 = load i32, ptr %15, align 4
  %104 = load i32, ptr %16, align 4
  %105 = icmp sge i32 %103, %104
  br i1 %105, label %106, label %148

106:                                              ; preds = %93
  %107 = load i32, ptr %16, align 4
  %108 = load i32, ptr %15, align 4
  %109 = sub i32 %108, %107
  store i32 %109, ptr %15, align 4
  %110 = load i32, ptr %14, align 4
  %111 = load i32, ptr %15, align 4
  %112 = icmp sgt i32 %110, %111
  br i1 %112, label %113, label %115

113:                                              ; preds = %106
  %114 = load i32, ptr %15, align 4
  store i32 %114, ptr %14, align 4
  br label %115

115:                                              ; preds = %113, %106
  %116 = load ptr, ptr %5, align 8
  %117 = load i32, ptr %11, align 4
  %118 = load i32, ptr %14, align 4
  %119 = load i32, ptr %15, align 4
  %120 = call ptr @tvb_new_subset_length_caplen(ptr noundef %116, i32 noundef %117, i32 noundef %118, i32 noundef %119)
  store ptr %120, ptr %17, align 8
  %121 = load i8, ptr %13, align 1
  %122 = zext i8 %121 to i32
  switch i32 %122, label %142 [
    i32 1, label %123
    i32 2, label %141
    i32 3, label %141
    i32 4, label %141
    i32 11, label %141
    i32 12, label %141
  ]

123:                                              ; preds = %115
  %124 = load i8, ptr %12, align 1
  %125 = zext i8 %124 to i32
  %126 = and i32 %125, 128
  %127 = icmp ne i32 %126, 0
  br i1 %127, label %128, label %134

128:                                              ; preds = %123
  %129 = load ptr, ptr @eth_withfcs_handle, align 8
  %130 = load ptr, ptr %17, align 8
  %131 = load ptr, ptr %6, align 8
  %132 = load ptr, ptr %7, align 8
  %133 = call i32 @call_dissector(ptr noundef %129, ptr noundef %130, ptr noundef %131, ptr noundef %132)
  br label %140

134:                                              ; preds = %123
  %135 = load ptr, ptr @eth_withoutfcs_handle, align 8
  %136 = load ptr, ptr %17, align 8
  %137 = load ptr, ptr %6, align 8
  %138 = load ptr, ptr %7, align 8
  %139 = call i32 @call_dissector(ptr noundef %135, ptr noundef %136, ptr noundef %137, ptr noundef %138)
  br label %140

140:                                              ; preds = %134, %128
  br label %147

141:                                              ; preds = %115, %115, %115, %115, %115
  br label %147

142:                                              ; preds = %115
  %143 = load ptr, ptr %17, align 8
  %144 = load ptr, ptr %6, align 8
  %145 = load ptr, ptr %7, align 8
  %146 = call i32 @call_data_dissector(ptr noundef %143, ptr noundef %144, ptr noundef %145)
  br label %147

147:                                              ; preds = %142, %141, %140
  br label %148

148:                                              ; preds = %147, %93
  br label %149

149:                                              ; preds = %148, %86
  %150 = load ptr, ptr %5, align 8
  %151 = call i32 @tvb_captured_length(ptr noundef %150)
  call void @llvm.lifetime.end.p0(i64 8, ptr %17) #6
  call void @llvm.lifetime.end.p0(i64 4, ptr %16) #6
  call void @llvm.lifetime.end.p0(i64 4, ptr %15) #6
  call void @llvm.lifetime.end.p0(i64 4, ptr %14) #6
  call void @llvm.lifetime.end.p0(i64 1, ptr %13) #6
  call void @llvm.lifetime.end.p0(i64 1, ptr %12) #6
  call void @llvm.lifetime.end.p0(i64 4, ptr %11) #6
  call void @llvm.lifetime.end.p0(i64 8, ptr %10) #6
  call void @llvm.lifetime.end.p0(i64 8, ptr %9) #6
  ret i32 %151
}