; Function Attrs: null_pointer_is_valid sspstrong uwtable
define internal i32 @dissect_bcp_bpdu(ptr noundef %0, ptr noundef %1, ptr noundef %2, ptr readnone captures(none) %3) #1 {
  %5 = getelementptr inbounds nuw i8, ptr %1, i64 8
  %6 = load ptr, ptr %5, align 8
  tail call void @col_set_str(ptr noundef %6, i32 noundef 35, ptr noundef nonnull @.str.1400)
  %7 = load ptr, ptr %5, align 8
  tail call void @col_clear(ptr noundef %7, i32 noundef 25)
  %8 = load i32, ptr @proto_bcp_bpdu, align 4
  %9 = tail call ptr @proto_tree_add_item(ptr noundef %2, i32 noundef %8, ptr noundef %0, i32 noundef 0, i32 noundef -1, i32 noundef 0)
  %10 = load i32, ptr @ett_bcp_bpdu, align 4
  %11 = tail call ptr @proto_item_add_subtree(ptr noundef %9, i32 noundef %10)
  %12 = tail call zeroext i8 @tvb_get_uint8(ptr noundef %0, i32 noundef 0)
  %13 = zext i8 %12 to i32
  %14 = and i32 %13, 16
  %.not = icmp eq i32 %14, 0
  br i1 %.not, label %17, label %15

15:                                               ; preds = %4
  %16 = load ptr, ptr %5, align 8
  tail call void @col_set_str(ptr noundef %16, i32 noundef 25, ptr noundef nonnull @.str.477)
  br label %17

17:                                               ; preds = %15, %4
  %18 = load i32, ptr @hf_bcp_bpdu_flags, align 4
  %19 = load i32, ptr @ett_bcp_bpdu_flags, align 4
  %20 = tail call ptr @proto_tree_add_bitmask(ptr noundef %11, ptr noundef %0, i32 noundef 0, i32 noundef %18, i32 noundef %19, ptr noundef nonnull @dissect_bcp_bpdu.bcp_bpdu_flags, i32 noundef 0)
  %21 = tail call zeroext i8 @tvb_get_uint8(ptr noundef %0, i32 noundef 1)
  br i1 %.not, label %22, label %._crit_edge

._crit_edge:                                      ; preds = %17
  %.pre = zext i8 %21 to i32
  br label %26

22:                                               ; preds = %17
  %23 = load ptr, ptr %5, align 8
  %24 = zext i8 %21 to i32
  %25 = tail call ptr @val_to_str(i32 noundef %24, ptr noundef nonnull @bcp_bpdu_mac_type_vals, ptr noundef nonnull @.str.1401)
  tail call void @col_add_str(ptr noundef %23, i32 noundef 25, ptr noundef %25)
  br label %26

26:                                               ; preds = %._crit_edge, %22
  %.pre-phi = phi i32 [ %.pre, %._crit_edge ], [ %24, %22 ]
  %27 = load i32, ptr @hf_bcp_bpdu_mac_type, align 4
  %28 = tail call ptr @proto_tree_add_uint(ptr noundef %11, i32 noundef %27, ptr noundef %0, i32 noundef 1, i32 noundef 1, i32 noundef %.pre-phi)
  switch i8 %21, label %32 [
    i8 2, label %29
    i8 3, label %29
    i8 4, label %29
    i8 11, label %29
    i8 12, label %29
  ]

29:                                               ; preds = %26, %26, %26, %26, %26
  %30 = load i32, ptr @hf_bcp_bpdu_pad, align 4
  %31 = tail call ptr @proto_tree_add_item(ptr noundef %11, i32 noundef %30, ptr noundef %0, i32 noundef 2, i32 noundef 1, i32 noundef 0)
  br label %32

32:                                               ; preds = %26, %29
  %.0 = phi i32 [ 2, %26 ], [ 3, %29 ]
  tail call void @proto_item_set_len(ptr noundef %9, i32 noundef %.0)
  br i1 %.not, label %33, label %49

33:                                               ; preds = %32
  %34 = tail call i32 @tvb_captured_length_remaining(ptr noundef %0, i32 noundef %.0)
  %35 = tail call i32 @tvb_reported_length_remaining(ptr noundef %0, i32 noundef %.0)
  %36 = and i32 %13, 15
  %.not63 = icmp slt i32 %35, %36
  br i1 %.not63, label %49, label %37

37:                                               ; preds = %33
  %38 = sub nsw i32 %35, %36
  %spec.select = tail call i32 @llvm.smin.i32(i32 %34, i32 %38)
  %39 = tail call ptr @tvb_new_subset_length_caplen(ptr noundef %0, i32 noundef %.0, i32 noundef %spec.select, i32 noundef %38)
  switch i8 %21, label %47 [
    i8 1, label %40
    i8 2, label %49
    i8 3, label %49
    i8 4, label %49
    i8 11, label %49
    i8 12, label %49
  ]

40:                                               ; preds = %37
  %.not64 = icmp sgt i8 %12, -1
  br i1 %.not64, label %44, label %41

41:                                               ; preds = %40
  %42 = load ptr, ptr @eth_withfcs_handle, align 8
  %43 = tail call i32 @call_dissector(ptr noundef %42, ptr noundef %39, ptr noundef %1, ptr noundef %2)
  br label %49

44:                                               ; preds = %40
  %45 = load ptr, ptr @eth_withoutfcs_handle, align 8
  %46 = tail call i32 @call_dissector(ptr noundef %45, ptr noundef %39, ptr noundef %1, ptr noundef %2)
  br label %49

47:                                               ; preds = %37
  %48 = tail call i32 @call_data_dissector(ptr noundef %39, ptr noundef %1, ptr noundef %2)
  br label %49

49:                                               ; preds = %33, %37, %37, %37, %37, %37, %41, %44, %47, %32
  %50 = tail call i32 @tvb_captured_length(ptr noundef %0)
  ret i32 %50
}